# SymbolsHelper-Confirmed: 6.5.0 amd64
libKF6IconThemes.so.6 libkf6iconthemes6 #MINVER#
* Build-Depends-Package: libkf6iconthemes-dev
 _Z9uintToHexjP5QChar@Base 6.0.0
 _ZN10KIconTheme11reconfigureEv@Base 6.0.0
 _ZN10KIconTheme16defaultThemeNameEv@Base 6.0.0
 _ZN10KIconTheme18forceThemeForTestsERK7QString@Base 6.0.0
 _ZN10KIconTheme4listEv@Base 6.0.0
 _ZN10KIconTheme7currentEv@Base 6.0.0
 _ZN10KIconTheme9initThemeEv@Base 6.3.0
 _ZN10KIconThemeC1ERK7QStringS2_S2_@Base 6.0.0
 _ZN10KIconThemeC2ERK7QStringS2_S2_@Base 6.0.0
 _ZN10KIconThemeD1Ev@Base 6.0.0
 _ZN10KIconThemeD2Ev@Base 6.0.0
 _ZN11KIconColors12setHighlightERK6QColor@Base 6.0.0
 _ZN11KIconColors13setActiveTextERK6QColor@Base 6.0.0
 _ZN11KIconColors13setBackgroundERK6QColor@Base 6.0.0
 _ZN11KIconColors14setNeutralTextERK6QColor@Base 6.0.0
 _ZN11KIconColors15setNegativeTextERK6QColor@Base 6.0.0
 _ZN11KIconColors15setPositiveTextERK6QColor@Base 6.0.0
 _ZN11KIconColors18setHighlightedTextERK6QColor@Base 6.0.0
 _ZN11KIconColors7setTextERK6QColor@Base 6.0.0
 _ZN11KIconColors9setAccentERK6QColor@Base 6.0.0
 _ZN11KIconColorsC1ERK6QColor@Base 6.0.0
 _ZN11KIconColorsC1ERK8QPalette@Base 6.0.0
 _ZN11KIconColorsC1ERKS_@Base 6.0.0
 _ZN11KIconColorsC1Ev@Base 6.0.0
 _ZN11KIconColorsC2ERK6QColor@Base 6.0.0
 _ZN11KIconColorsC2ERK8QPalette@Base 6.0.0
 _ZN11KIconColorsC2ERKS_@Base 6.0.0
 _ZN11KIconColorsC2Ev@Base 6.0.0
 _ZN11KIconColorsD1Ev@Base 6.0.0
 _ZN11KIconColorsD2Ev@Base 6.0.0
 _ZN11KIconColorsaSERKS_@Base 6.0.0
 _ZN11KIconEffect10deSaturateER6QImagef@Base 6.0.0
 _ZN11KIconEffect10toDisabledER6QImage@Base 6.5.0
 _ZN11KIconEffect10toDisabledER7QPixmap@Base 6.5.0
 _ZN11KIconEffect12toMonochromeER6QImageRK6QColorS4_f@Base 6.0.0
 _ZN11KIconEffect15semiTransparentER6QImage@Base 6.0.0
 _ZN11KIconEffect15semiTransparentER7QPixmap@Base 6.0.0
 _ZN11KIconEffect4initEv@Base 6.0.0
 _ZN11KIconEffect6toGrayER6QImagef@Base 6.0.0
 _ZN11KIconEffect7overlayER6QImageS1_@Base 6.0.0
 _ZN11KIconEffect7toGammaER6QImagef@Base 6.0.0
 _ZN11KIconEffect8colorizeER6QImageRK6QColorf@Base 6.0.0
 _ZN11KIconEffect8toActiveER6QImage@Base 6.5.0
 _ZN11KIconEffect8toActiveER7QPixmap@Base 6.5.0
 _ZN11KIconEffectC1Ev@Base 6.0.0
 _ZN11KIconEffectC2Ev@Base 6.0.0
 _ZN11KIconEffectD1Ev@Base 6.0.0
 _ZN11KIconEffectD2Ev@Base 6.0.0
 _ZN11KIconEngine10actualSizeERK5QSizeN5QIcon4ModeENS3_5StateE@Base 6.0.0
 _ZN11KIconEngine12createPixmapERK5QSizedN5QIcon4ModeENS3_5StateE@Base 6.0.0
 _ZN11KIconEngine12scaledPixmapERK5QSizeN5QIcon4ModeENS3_5StateEd@Base 6.0.0
 _ZN11KIconEngine14availableSizesEN5QIcon4ModeENS0_5StateE@Base 6.0.0
 _ZN11KIconEngine4readER11QDataStream@Base 6.0.0
 _ZN11KIconEngine5paintEP8QPainterRK5QRectN5QIcon4ModeENS5_5StateE@Base 6.0.0
 _ZN11KIconEngine6isNullEv@Base 6.0.0
 _ZN11KIconEngine6pixmapERK5QSizeN5QIcon4ModeENS3_5StateE@Base 6.0.0
 _ZN11KIconEngine8iconNameEv@Base 6.0.0
 _ZN11KIconEngineC1ERK7QStringP11KIconLoader@Base 6.0.0
 _ZN11KIconEngineC1ERK7QStringP11KIconLoaderRK5QListIS0_E@Base 6.0.0
 _ZN11KIconEngineC1ERK7QStringRK11KIconColorsP11KIconLoader@Base 6.0.0
 _ZN11KIconEngineC1ERK7QStringRK11KIconColorsP11KIconLoaderRK5QListIS0_E@Base 6.3.0
 _ZN11KIconEngineC2ERK7QStringP11KIconLoader@Base 6.0.0
 _ZN11KIconEngineC2ERK7QStringP11KIconLoaderRK5QListIS0_E@Base 6.0.0
 _ZN11KIconEngineC2ERK7QStringRK11KIconColorsP11KIconLoader@Base 6.0.0
 _ZN11KIconEngineC2ERK7QStringRK11KIconColorsP11KIconLoaderRK5QListIS0_E@Base 6.3.0
 _ZN11KIconEngineD0Ev@Base 6.0.0
 _ZN11KIconEngineD1Ev@Base 6.0.0
 _ZN11KIconEngineD2Ev@Base 6.0.0
 _ZN11KIconLoader10emitChangeENS_5GroupE@Base 6.0.0
 _ZN11KIconLoader11iconChangedEi@Base 6.0.0
 _ZN11KIconLoader11qt_metacallEN11QMetaObject4CallEiPPv@Base 6.0.0
 _ZN11KIconLoader11qt_metacastEPKc@Base 6.0.0
 _ZN11KIconLoader11reconfigureERK7QStringRK5QListIS0_E@Base 6.0.0
 _ZN11KIconLoader12resetPaletteEv@Base 6.0.0
 _ZN11KIconLoader13newIconLoaderEv@Base 6.0.0
 _ZN11KIconLoader16setCustomPaletteERK8QPalette@Base 6.0.0
 _ZN11KIconLoader16staticMetaObjectE@Base 6.0.0
 _ZN11KIconLoader25iconLoaderSettingsChangedEv@Base 6.0.0
 _ZN11KIconLoader6globalEv@Base 6.0.0
 _ZN11KIconLoader7unknownEv@Base 6.0.0
 _ZN11KIconLoader9addAppDirERK7QStringS2_@Base 6.0.0
 _ZN11KIconLoaderC1ERK7QStringRK5QListIS0_EP7QObject@Base 6.0.0
 _ZN11KIconLoaderC2ERK7QStringRK5QListIS0_EP7QObject@Base 6.0.0
 _ZN11KIconLoaderD0Ev@Base 6.0.0
 _ZN11KIconLoaderD1Ev@Base 6.0.0
 _ZN11KIconLoaderD2Ev@Base 6.0.0
 _ZN3KDE4iconERK7QStringP11KIconLoader@Base 6.0.0
 _ZN3KDE4iconERK7QStringRK11KIconColorsP11KIconLoader@Base 6.0.0
 _ZN3KDE4iconERK7QStringRK5QListIS0_EP11KIconLoader@Base 6.0.0
 _ZNK10KIconTheme10hasContextEN11KIconLoader7ContextE@Base 6.0.0
 _ZNK10KIconTheme10queryIconsEiN11KIconLoader7ContextE@Base 6.0.0
 _ZNK10KIconTheme10querySizesEN11KIconLoader5GroupE@Base 6.0.0
 _ZNK10KIconTheme10screenshotEv@Base 6.0.0
 _ZNK10KIconTheme11defaultSizeEN11KIconLoader5GroupE@Base 6.0.0
 _ZNK10KIconTheme11descriptionEv@Base 6.0.0
 _ZNK10KIconTheme12internalNameEv@Base 6.0.0
 _ZNK10KIconTheme14iconPathByNameERK7QStringiN11KIconLoader9MatchTypeE@Base 6.0.0
 _ZNK10KIconTheme14iconPathByNameERK7QStringiN11KIconLoader9MatchTypeEd@Base 6.0.0
 _ZNK10KIconTheme18followsColorSchemeEv@Base 6.0.0
 _ZNK10KIconTheme19queryIconsByContextEiN11KIconLoader7ContextE@Base 6.0.0
 _ZNK10KIconTheme3dirEv@Base 6.0.0
 _ZNK10KIconTheme4nameEv@Base 6.0.0
 _ZNK10KIconTheme5depthEv@Base 6.0.0
 _ZNK10KIconTheme7exampleEv@Base 6.0.0
 _ZNK10KIconTheme7isValidEv@Base 6.0.0
 _ZNK10KIconTheme8iconPathERK7QStringiN11KIconLoader9MatchTypeE@Base 6.0.0
 _ZNK10KIconTheme8iconPathERK7QStringiN11KIconLoader9MatchTypeEd@Base 6.0.0
 _ZNK10KIconTheme8inheritsEv@Base 6.0.0
 _ZNK10KIconTheme8isHiddenEv@Base 6.0.0
 _ZNK11KIconColors10activeTextEv@Base 6.0.0
 _ZNK11KIconColors10backgroundEv@Base 6.0.0
 _ZNK11KIconColors10stylesheetEN11KIconLoader6StatesE@Base 6.0.0
 _ZNK11KIconColors11neutralTextEv@Base 6.0.0
 _ZNK11KIconColors12negativeTextEv@Base 6.0.0
 _ZNK11KIconColors12positiveTextEv@Base 6.0.0
 _ZNK11KIconColors15highlightedTextEv@Base 6.0.0
 _ZNK11KIconColors4textEv@Base 6.0.0
 _ZNK11KIconColors6accentEv@Base 6.0.0
 _ZNK11KIconColors9highlightEv@Base 6.0.0
 _ZNK11KIconEffect11fingerprintEii@Base 6.0.0
 _ZNK11KIconEffect12doublePixelsERK6QImage@Base 6.0.0
 _ZNK11KIconEffect5applyERK6QImageifRK6QColorS5_b@Base 6.0.0
 _ZNK11KIconEffect5applyERK6QImageifRK6QColorb@Base 6.0.0
 _ZNK11KIconEffect5applyERK6QImageii@Base 6.0.0
 _ZNK11KIconEffect5applyERK7QPixmapifRK6QColorS5_b@Base 6.0.0
 _ZNK11KIconEffect5applyERK7QPixmapifRK6QColorb@Base 6.0.0
 _ZNK11KIconEffect5applyERK7QPixmapii@Base 6.0.0
 _ZNK11KIconEffect9hasEffectEii@Base 6.0.0
 _ZNK11KIconEngine3keyEv@Base 6.0.0
 _ZNK11KIconEngine5cloneEv@Base 6.0.0
 _ZNK11KIconEngine5writeER11QDataStream@Base 6.0.0
 _ZNK11KIconLoader10hasContextENS_7ContextE@Base 6.0.0
 _ZNK11KIconLoader10iconEffectEv@Base 6.0.0
 _ZNK11KIconLoader10metaObjectEv@Base 6.0.0
 _ZNK11KIconLoader10queryIconsEiNS_7ContextE@Base 6.0.0
 _ZNK11KIconLoader11currentSizeENS_5GroupE@Base 6.0.0
 _ZNK11KIconLoader11searchPathsEv@Base 6.0.0
 _ZNK11KIconLoader12drawOverlaysERK5QListI7QStringER7QPixmapNS_5GroupEi@Base 6.0.0
 _ZNK11KIconLoader12loadAnimatedERK7QStringNS_5GroupEi@Base 6.0.0
 _ZNK11KIconLoader13customPaletteEv@Base 6.0.0
 _ZNK11KIconLoader14loadScaledIconERK7QStringNS_5GroupEdRK5QSizeiRK5QListIS0_EPS0_b@Base 6.0.0
 _ZNK11KIconLoader14loadScaledIconERK7QStringNS_5GroupEdRK5QSizeiRK5QListIS0_EPS0_bRKSt8optionalI11KIconColorsE@Base 6.0.0
 _ZNK11KIconLoader14loadScaledIconERK7QStringNS_5GroupEdiiRK5QListIS0_EPS0_b@Base 6.0.0
 _ZNK11KIconLoader15queryIconsByDirERK7QString@Base 6.0.0
 _ZNK11KIconLoader16hasCustomPaletteEv@Base 6.0.0
 _ZNK11KIconLoader16loadMimeTypeIconERK7QStringNS_5GroupEiiRK5QListIS0_EPS0_@Base 6.0.0
 _ZNK11KIconLoader19queryIconsByContextEiNS_7ContextE@Base 6.0.0
 _ZNK11KIconLoader5themeEv@Base 6.0.0
 _ZNK11KIconLoader7hasIconERK7QString@Base 6.0.0
 _ZNK11KIconLoader8iconPathERK7QStringib@Base 6.0.0
 _ZNK11KIconLoader8iconPathERK7QStringibd@Base 6.0.0
 _ZNK11KIconLoader8loadIconERK7QStringNS_5GroupEiiRK5QListIS0_EPS0_b@Base 6.0.0
 _ZNK11KIconLoader9loadMovieERK7QStringNS_5GroupEiP7QObject@Base 6.0.0
 _ZNK11KIconLoader9moviePathERK7QStringNS_5GroupEi@Base 6.0.0
 (optional=templinst)_ZNK12KConfigGroup9readEntryI5QListI8QVariantEEET_PKcRKS4_@Base 6.0.0
 (optional=templinst)_ZNK12KConfigGroup9readEntryIbEET_PKcRKS1_@Base 6.0.0
 (optional=templinst)_ZNK12KConfigGroup9readEntryIiEE5QListIT_EPKcRKS3_@Base 6.0.0
 (optional=templinst)_ZNK12KConfigGroup9readEntryIiEET_PKcRKS1_@Base 6.0.0
 _ZTI11KIconEngine@Base 6.0.0
 _ZTI11KIconLoader@Base 6.0.0
 _ZTS11KIconEngine@Base 6.0.0
 _ZTS11KIconLoader@Base 6.0.0
 _ZTV11KIconEngine@Base 6.0.0
 _ZTV11KIconLoader@Base 6.0.0
 kiconloader_ms_between_checks@Base 6.0.0
 qt_plugin_instance@Base 6.0.0
 qt_plugin_query_metadata_v2@Base 6.0.0
