# SymbolsHelper-Confirmed: 6.0.0 amd64
libKF6IconWidgets.so.6 libkf6iconwidgets6 #MINVER#
* Build-Depends-Package: libkf6iconthemes-dev
 _ZN11KIconButton11iconChangedERK7QString@Base 6.0.0
 _ZN11KIconButton11qt_metacallEN11QMetaObject4CallEiPPv@Base 6.0.0
 _ZN11KIconButton11qt_metacastEPKc@Base 6.0.0
 _ZN11KIconButton11setIconSizeEi@Base 6.0.0
 _ZN11KIconButton11setIconTypeEN11KIconLoader5GroupENS0_7ContextEb@Base 6.0.0
 _ZN11KIconButton16staticMetaObjectE@Base 6.0.0
 _ZN11KIconButton17setButtonIconSizeEi@Base 6.0.0
 _ZN11KIconButton17setStrictIconSizeEb@Base 6.0.0
 _ZN11KIconButton7setIconERK5QIcon@Base 6.0.0
 _ZN11KIconButton7setIconERK7QString@Base 6.0.0
 _ZN11KIconButton9resetIconEv@Base 6.0.0
 _ZN11KIconButtonC1EP7QWidget@Base 6.0.0
 _ZN11KIconButtonC2EP7QWidget@Base 6.0.0
 _ZN11KIconButtonD0Ev@Base 6.0.0
 _ZN11KIconButtonD1Ev@Base 6.0.0
 _ZN11KIconButtonD2Ev@Base 6.0.0
 _ZN11KIconDialog10openDialogEv@Base 6.0.0
 _ZN11KIconDialog10showDialogEv@Base 6.0.0
 _ZN11KIconDialog11newIconNameERK7QString@Base 6.0.0
 _ZN11KIconDialog11qt_metacallEN11QMetaObject4CallEiPPv@Base 6.0.0
 _ZN11KIconDialog11qt_metacastEPKc@Base 6.0.0
 _ZN11KIconDialog11setIconSizeEi@Base 6.0.0
 _ZN11KIconDialog15setSelectedIconERK7QString@Base 6.0.0
 _ZN11KIconDialog16staticMetaObjectE@Base 6.0.0
 _ZN11KIconDialog17setCustomLocationERK7QString@Base 6.0.0
 _ZN11KIconDialog17setStrictIconSizeEb@Base 6.0.0
 _ZN11KIconDialog5setupEN11KIconLoader5GroupENS0_7ContextEbibbb@Base 6.0.0
 _ZN11KIconDialog6slotOkEv@Base 6.0.0
 _ZN11KIconDialog7getIconEN11KIconLoader5GroupENS0_7ContextEbibP7QWidgetRK7QString@Base 6.0.0
 _ZN11KIconDialog9showEventEP10QShowEvent@Base 6.0.0
 _ZN11KIconDialogC1EP7QWidget@Base 6.0.0
 _ZN11KIconDialogC2EP7QWidget@Base 6.0.0
 _ZN11KIconDialogD0Ev@Base 6.0.0
 _ZN11KIconDialogD1Ev@Base 6.0.0
 _ZN11KIconDialogD2Ev@Base 6.0.0
 _ZN21KPixmapSequenceLoader4loadERK7QStringi@Base 6.0.0
 _ZNK11KIconButton10metaObjectEv@Base 6.0.0
 _ZNK11KIconButton14buttonIconSizeEv@Base 6.0.0
 _ZNK11KIconButton14strictIconSizeEv@Base 6.0.0
 _ZNK11KIconButton4iconEv@Base 6.0.0
 _ZNK11KIconButton8iconSizeEv@Base 6.0.0
 _ZNK11KIconDialog10metaObjectEv@Base 6.0.0
 _ZNK11KIconDialog14strictIconSizeEv@Base 6.0.0
 _ZNK11KIconDialog8iconSizeEv@Base 6.0.0
 _ZTI11KIconButton@Base 6.0.0
 _ZTI11KIconDialog@Base 6.0.0
 _ZTS11KIconButton@Base 6.0.0
 _ZTS11KIconDialog@Base 6.0.0
 _ZTV11KIconButton@Base 6.0.0
 _ZTV11KIconDialog@Base 6.0.0
 (c++)"non-virtual thunk to KIconButton::~KIconButton()@Base" 6.0.0
 (c++)"non-virtual thunk to KIconDialog::~KIconDialog()@Base" 6.0.0
